target datalayout = "e-m:e-p270:32:32-p271:32:32-p272:64:64-i64:64-i128:128-f80:128-n8:16:32:64-S128"
target triple = "x86_64-pc-linux-gnu"

%struct.regex_matcher = type { %struct.cli_hashtable, i64, ptr, i64, i64, ptr, %struct.cli_matcher, %struct.cli_matcher, %struct.cli_hashset, %struct.cli_matcher, %struct.filter, ptr, i8 }
%struct.cli_hashtable = type { ptr, i64, i64, i64 }
%struct.cli_hashset = type { ptr, ptr, ptr, i32, i32, i32, i32 }
%struct.cli_matcher = type { i32, ptr, ptr, ptr, ptr, i32, i32, i32, i32, i32, %struct.cli_hash_patt, %struct.cli_hash_wild, i32, i32, i32, i32, i32, ptr, ptr, ptr, ptr, ptr, ptr, i32, i32, i8, i8, ptr, i16, i8, i32, ptr, i32, i32, i32, ptr, ptr, i32, ptr, i64, i64, ptr }
%struct.cli_hash_patt = type { [3 x %struct.cli_htu32] }
%struct.cli_htu32 = type { ptr, i64, i64, i64 }
%struct.cli_hash_wild = type { [3 x %struct.cli_sz_hash] }
%struct.cli_sz_hash = type { ptr, ptr, i32 }
%struct.filter = type { [65536 x i8], [65536 x i8], i64 }

@.str.23 = private unnamed_addr constant [42 x i8] c"is_regex_ok: matcher must be initialized\0A\00", align 1

; Function Attrs: nounwind uwtable
define i32 @is_regex_ok(ptr noundef %0) #0 {
  %2 = alloca ptr, align 8
  %3 = alloca i32, align 4
  store ptr %0, ptr %2, align 8, !tbaa !3
  call void @llvm.lifetime.start.p0(i64 4, ptr %3) #11
  store i32 0, ptr %3, align 4, !tbaa !12
  %4 = load ptr, ptr %2, align 8, !tbaa !3
  %5 = icmp eq ptr null, %4
  br i1 %5, label %6, label %7

6:                                                ; preds = %1
  call void (ptr, ...) @cli_errmsg(ptr noundef @.str.23)
  br label %26

7:                                                ; preds = %1
  %8 = load ptr, ptr %2, align 8, !tbaa !3
  %9 = getelementptr inbounds nuw %struct.regex_matcher, ptr %8, i32 0, i32 12
  %10 = load i8, ptr %9, align 8
  %11 = shl i8 %10, 6
  %12 = ashr i8 %11, 6
  %13 = sext i8 %12 to i32
  %14 = icmp ne i32 %13, 0
  br i1 %14, label %15, label %23

15:                                               ; preds = %7
  %16 = load ptr, ptr %2, align 8, !tbaa !3
  %17 = getelementptr inbounds nuw %struct.regex_matcher, ptr %16, i32 0, i32 12
  %18 = load i8, ptr %17, align 8
  %19 = shl i8 %18, 6
  %20 = ashr i8 %19, 6
  %21 = sext i8 %20 to i32
  %22 = icmp ne i32 %21, -1
  br label %23

23:                                               ; preds = %15, %7
  %24 = phi i1 [ true, %7 ], [ %22, %15 ]
  %25 = zext i1 %24 to i32
  store i32 %25, ptr %3, align 4, !tbaa !12
  br label %26

26:                                               ; preds = %23, %6
  %27 = load i32, ptr %3, align 4, !tbaa !12
  call void @llvm.lifetime.end.p0(i64 4, ptr %3) #11
  ret i32 %27
}