; Function Attrs: nounwind uwtable
define range(i32 0, 2) i32 @is_regex_ok(ptr noundef readonly %0) local_unnamed_addr #0 {
  %2 = icmp eq ptr %0, null
  br i1 %2, label %3, label %4

3:                                                ; preds = %1
  tail call void (ptr, ...) @cli_errmsg(ptr noundef nonnull @.str.23) #14
  br label %9

4:                                                ; preds = %1
  %5 = getelementptr inbounds nuw i8, ptr %0, i64 132448
  %6 = load i8, ptr %5, align 8
  %.mask = and i8 %6, 3
  %7 = icmp ne i8 %.mask, 3
  %8 = zext i1 %7 to i32
  br label %9

9:                                                ; preds = %4, %3
  %.0 = phi i32 [ 0, %3 ], [ %8, %4 ]
  ret i32 %.0
}